target datalayout = "e-m:e-p270:32:32-p271:32:32-p272:64:64-i64:64-i128:128-f80:128-n8:16:32:64-S128"
target triple = "x86_64-pc-linux-gnu"

%struct._ikev2_uat_data = type { %struct._ikev2_uat_data_key, i32, i32, ptr, i32, ptr, i32, ptr, i32, ptr, i32, ptr, ptr }
%struct._ikev2_uat_data_key = type { ptr, i32, ptr, i32 }

; Function Attrs: null_pointer_is_valid sspstrong uwtable
define internal ptr @ikev2_uat_data_copy_cb(ptr noundef %0, ptr noundef %1, i64 noundef %2) #0 {
  %4 = alloca ptr, align 8
  %5 = alloca ptr, align 8
  %6 = alloca i64, align 8
  %7 = alloca ptr, align 8
  %8 = alloca ptr, align 8
  store ptr %0, ptr %4, align 8
  store ptr %1, ptr %5, align 8
  store i64 %2, ptr %6, align 8
  call void @llvm.lifetime.start.p0(i64 8, ptr %7) #16
  %9 = load ptr, ptr %5, align 8
  store ptr %9, ptr %7, align 8
  call void @llvm.lifetime.start.p0(i64 8, ptr %8) #16
  %10 = load ptr, ptr %4, align 8
  store ptr %10, ptr %8, align 8
  %11 = load ptr, ptr %7, align 8
  %12 = getelementptr inbounds nuw %struct._ikev2_uat_data, ptr %11, i32 0, i32 0
  %13 = getelementptr inbounds nuw %struct._ikev2_uat_data_key, ptr %12, i32 0, i32 0
  %14 = load ptr, ptr %13, align 8
  %15 = load ptr, ptr %7, align 8
  %16 = getelementptr inbounds nuw %struct._ikev2_uat_data, ptr %15, i32 0, i32 0
  %17 = getelementptr inbounds nuw %struct._ikev2_uat_data_key, ptr %16, i32 0, i32 1
  %18 = load i32, ptr %17, align 8
  %19 = zext i32 %18 to i64
  %20 = call ptr @g_memdup2(ptr noundef %14, i64 noundef %19) #17
  %21 = load ptr, ptr %8, align 8
  %22 = getelementptr inbounds nuw %struct._ikev2_uat_data, ptr %21, i32 0, i32 0
  %23 = getelementptr inbounds nuw %struct._ikev2_uat_data_key, ptr %22, i32 0, i32 0
  store ptr %20, ptr %23, align 8
  %24 = load ptr, ptr %7, align 8
  %25 = getelementptr inbounds nuw %struct._ikev2_uat_data, ptr %24, i32 0, i32 0
  %26 = getelementptr inbounds nuw %struct._ikev2_uat_data_key, ptr %25, i32 0, i32 1
  %27 = load i32, ptr %26, align 8
  %28 = load ptr, ptr %8, align 8
  %29 = getelementptr inbounds nuw %struct._ikev2_uat_data, ptr %28, i32 0, i32 0
  %30 = getelementptr inbounds nuw %struct._ikev2_uat_data_key, ptr %29, i32 0, i32 1
  store i32 %27, ptr %30, align 8
  %31 = load ptr, ptr %7, align 8
  %32 = getelementptr inbounds nuw %struct._ikev2_uat_data, ptr %31, i32 0, i32 0
  %33 = getelementptr inbounds nuw %struct._ikev2_uat_data_key, ptr %32, i32 0, i32 2
  %34 = load ptr, ptr %33, align 8
  %35 = load ptr, ptr %7, align 8
  %36 = getelementptr inbounds nuw %struct._ikev2_uat_data, ptr %35, i32 0, i32 0
  %37 = getelementptr inbounds nuw %struct._ikev2_uat_data_key, ptr %36, i32 0, i32 3
  %38 = load i32, ptr %37, align 8
  %39 = zext i32 %38 to i64
  %40 = call ptr @g_memdup2(ptr noundef %34, i64 noundef %39) #17
  %41 = load ptr, ptr %8, align 8
  %42 = getelementptr inbounds nuw %struct._ikev2_uat_data, ptr %41, i32 0, i32 0
  %43 = getelementptr inbounds nuw %struct._ikev2_uat_data_key, ptr %42, i32 0, i32 2
  store ptr %40, ptr %43, align 8
  %44 = load ptr, ptr %7, align 8
  %45 = getelementptr inbounds nuw %struct._ikev2_uat_data, ptr %44, i32 0, i32 0
  %46 = getelementptr inbounds nuw %struct._ikev2_uat_data_key, ptr %45, i32 0, i32 3
  %47 = load i32, ptr %46, align 8
  %48 = load ptr, ptr %8, align 8
  %49 = getelementptr inbounds nuw %struct._ikev2_uat_data, ptr %48, i32 0, i32 0
  %50 = getelementptr inbounds nuw %struct._ikev2_uat_data_key, ptr %49, i32 0, i32 3
  store i32 %47, ptr %50, align 8
  %51 = load ptr, ptr %7, align 8
  %52 = getelementptr inbounds nuw %struct._ikev2_uat_data, ptr %51, i32 0, i32 1
  %53 = load i32, ptr %52, align 8
  %54 = load ptr, ptr %8, align 8
  %55 = getelementptr inbounds nuw %struct._ikev2_uat_data, ptr %54, i32 0, i32 1
  store i32 %53, ptr %55, align 8
  %56 = load ptr, ptr %7, align 8
  %57 = getelementptr inbounds nuw %struct._ikev2_uat_data, ptr %56, i32 0, i32 2
  %58 = load i32, ptr %57, align 4
  %59 = load ptr, ptr %8, align 8
  %60 = getelementptr inbounds nuw %struct._ikev2_uat_data, ptr %59, i32 0, i32 2
  store i32 %58, ptr %60, align 4
  %61 = load ptr, ptr %7, align 8
  %62 = getelementptr inbounds nuw %struct._ikev2_uat_data, ptr %61, i32 0, i32 3
  %63 = load ptr, ptr %62, align 8
  %64 = load ptr, ptr %7, align 8
  %65 = getelementptr inbounds nuw %struct._ikev2_uat_data, ptr %64, i32 0, i32 4
  %66 = load i32, ptr %65, align 8
  %67 = zext i32 %66 to i64
  %68 = call ptr @g_memdup2(ptr noundef %63, i64 noundef %67) #17
  %69 = load ptr, ptr %8, align 8
  %70 = getelementptr inbounds nuw %struct._ikev2_uat_data, ptr %69, i32 0, i32 3
  store ptr %68, ptr %70, align 8
  %71 = load ptr, ptr %7, align 8
  %72 = getelementptr inbounds nuw %struct._ikev2_uat_data, ptr %71, i32 0, i32 4
  %73 = load i32, ptr %72, align 8
  %74 = load ptr, ptr %8, align 8
  %75 = getelementptr inbounds nuw %struct._ikev2_uat_data, ptr %74, i32 0, i32 4
  store i32 %73, ptr %75, align 8
  %76 = load ptr, ptr %7, align 8
  %77 = getelementptr inbounds nuw %struct._ikev2_uat_data, ptr %76, i32 0, i32 5
  %78 = load ptr, ptr %77, align 8
  %79 = load ptr, ptr %7, align 8
  %80 = getelementptr inbounds nuw %struct._ikev2_uat_data, ptr %79, i32 0, i32 6
  %81 = load i32, ptr %80, align 8
  %82 = zext i32 %81 to i64
  %83 = call ptr @g_memdup2(ptr noundef %78, i64 noundef %82) #17
  %84 = load ptr, ptr %8, align 8
  %85 = getelementptr inbounds nuw %struct._ikev2_uat_data, ptr %84, i32 0, i32 5
  store ptr %83, ptr %85, align 8
  %86 = load ptr, ptr %7, align 8
  %87 = getelementptr inbounds nuw %struct._ikev2_uat_data, ptr %86, i32 0, i32 6
  %88 = load i32, ptr %87, align 8
  %89 = load ptr, ptr %8, align 8
  %90 = getelementptr inbounds nuw %struct._ikev2_uat_data, ptr %89, i32 0, i32 6
  store i32 %88, ptr %90, align 8
  %91 = load ptr, ptr %7, align 8
  %92 = getelementptr inbounds nuw %struct._ikev2_uat_data, ptr %91, i32 0, i32 7
  %93 = load ptr, ptr %92, align 8
  %94 = load ptr, ptr %7, align 8
  %95 = getelementptr inbounds nuw %struct._ikev2_uat_data, ptr %94, i32 0, i32 8
  %96 = load i32, ptr %95, align 8
  %97 = zext i32 %96 to i64
  %98 = call ptr @g_memdup2(ptr noundef %93, i64 noundef %97) #17
  %99 = load ptr, ptr %8, align 8
  %100 = getelementptr inbounds nuw %struct._ikev2_uat_data, ptr %99, i32 0, i32 7
  store ptr %98, ptr %100, align 8
  %101 = load ptr, ptr %7, align 8
  %102 = getelementptr inbounds nuw %struct._ikev2_uat_data, ptr %101, i32 0, i32 8
  %103 = load i32, ptr %102, align 8
  %104 = load ptr, ptr %8, align 8
  %105 = getelementptr inbounds nuw %struct._ikev2_uat_data, ptr %104, i32 0, i32 8
  store i32 %103, ptr %105, align 8
  %106 = load ptr, ptr %7, align 8
  %107 = getelementptr inbounds nuw %struct._ikev2_uat_data, ptr %106, i32 0, i32 9
  %108 = load ptr, ptr %107, align 8
  %109 = load ptr, ptr %7, align 8
  %110 = getelementptr inbounds nuw %struct._ikev2_uat_data, ptr %109, i32 0, i32 10
  %111 = load i32, ptr %110, align 8
  %112 = zext i32 %111 to i64
  %113 = call ptr @g_memdup2(ptr noundef %108, i64 noundef %112) #17
  %114 = load ptr, ptr %8, align 8
  %115 = getelementptr inbounds nuw %struct._ikev2_uat_data, ptr %114, i32 0, i32 9
  store ptr %113, ptr %115, align 8
  %116 = load ptr, ptr %7, align 8
  %117 = getelementptr inbounds nuw %struct._ikev2_uat_data, ptr %116, i32 0, i32 10
  %118 = load i32, ptr %117, align 8
  %119 = load ptr, ptr %8, align 8
  %120 = getelementptr inbounds nuw %struct._ikev2_uat_data, ptr %119, i32 0, i32 10
  store i32 %118, ptr %120, align 8
  %121 = load ptr, ptr %7, align 8
  %122 = getelementptr inbounds nuw %struct._ikev2_uat_data, ptr %121, i32 0, i32 11
  %123 = load ptr, ptr %122, align 8
  %124 = call ptr @g_memdup2(ptr noundef %123, i64 noundef 32) #17
  %125 = load ptr, ptr %8, align 8
  %126 = getelementptr inbounds nuw %struct._ikev2_uat_data, ptr %125, i32 0, i32 11
  store ptr %124, ptr %126, align 8
  %127 = load ptr, ptr %7, align 8
  %128 = getelementptr inbounds nuw %struct._ikev2_uat_data, ptr %127, i32 0, i32 12
  %129 = load ptr, ptr %128, align 8
  %130 = call ptr @g_memdup2(ptr noundef %129, i64 noundef 24) #17
  %131 = load ptr, ptr %8, align 8
  %132 = getelementptr inbounds nuw %struct._ikev2_uat_data, ptr %131, i32 0, i32 12
  store ptr %130, ptr %132, align 8
  %133 = load ptr, ptr %4, align 8
  call void @llvm.lifetime.end.p0(i64 8, ptr %8) #16
  call void @llvm.lifetime.end.p0(i64 8, ptr %7) #16
  ret ptr %133
}