; Function Attrs: null_pointer_is_valid sspstrong uwtable
define internal noundef ptr @ikev2_uat_data_copy_cb(ptr noundef returned writeonly captures(ret: address, provenance) initializes((0, 12), (16, 28), (32, 52), (56, 68), (72, 84), (88, 100), (104, 120)) %0, ptr noundef readonly captures(none) %1, i64 %2) #0 {
  %4 = load ptr, ptr %1, align 8
  %5 = getelementptr inbounds nuw i8, ptr %1, i64 8
  %6 = load i32, ptr %5, align 8
  %7 = zext i32 %6 to i64
  %8 = tail call ptr @g_memdup2(ptr noundef %4, i64 noundef %7) #22
  store ptr %8, ptr %0, align 8
  %9 = load i32, ptr %5, align 8
  %10 = getelementptr inbounds nuw i8, ptr %0, i64 8
  store i32 %9, ptr %10, align 8
  %11 = getelementptr inbounds nuw i8, ptr %1, i64 16
  %12 = load ptr, ptr %11, align 8
  %13 = getelementptr inbounds nuw i8, ptr %1, i64 24
  %14 = load i32, ptr %13, align 8
  %15 = zext i32 %14 to i64
  %16 = tail call ptr @g_memdup2(ptr noundef %12, i64 noundef %15) #22
  %17 = getelementptr inbounds nuw i8, ptr %0, i64 16
  store ptr %16, ptr %17, align 8
  %18 = load i32, ptr %13, align 8
  %19 = getelementptr inbounds nuw i8, ptr %0, i64 24
  store i32 %18, ptr %19, align 8
  %20 = getelementptr inbounds nuw i8, ptr %1, i64 32
  %21 = load i32, ptr %20, align 8
  %22 = getelementptr inbounds nuw i8, ptr %0, i64 32
  store i32 %21, ptr %22, align 8
  %23 = getelementptr inbounds nuw i8, ptr %1, i64 36
  %24 = load i32, ptr %23, align 4
  %25 = getelementptr inbounds nuw i8, ptr %0, i64 36
  store i32 %24, ptr %25, align 4
  %26 = getelementptr inbounds nuw i8, ptr %1, i64 40
  %27 = load ptr, ptr %26, align 8
  %28 = getelementptr inbounds nuw i8, ptr %1, i64 48
  %29 = load i32, ptr %28, align 8
  %30 = zext i32 %29 to i64
  %31 = tail call ptr @g_memdup2(ptr noundef %27, i64 noundef %30) #22
  %32 = getelementptr inbounds nuw i8, ptr %0, i64 40
  store ptr %31, ptr %32, align 8
  %33 = load i32, ptr %28, align 8
  %34 = getelementptr inbounds nuw i8, ptr %0, i64 48
  store i32 %33, ptr %34, align 8
  %35 = getelementptr inbounds nuw i8, ptr %1, i64 56
  %36 = load ptr, ptr %35, align 8
  %37 = getelementptr inbounds nuw i8, ptr %1, i64 64
  %38 = load i32, ptr %37, align 8
  %39 = zext i32 %38 to i64
  %40 = tail call ptr @g_memdup2(ptr noundef %36, i64 noundef %39) #22
  %41 = getelementptr inbounds nuw i8, ptr %0, i64 56
  store ptr %40, ptr %41, align 8
  %42 = load i32, ptr %37, align 8
  %43 = getelementptr inbounds nuw i8, ptr %0, i64 64
  store i32 %42, ptr %43, align 8
  %44 = getelementptr inbounds nuw i8, ptr %1, i64 72
  %45 = load ptr, ptr %44, align 8
  %46 = getelementptr inbounds nuw i8, ptr %1, i64 80
  %47 = load i32, ptr %46, align 8
  %48 = zext i32 %47 to i64
  %49 = tail call ptr @g_memdup2(ptr noundef %45, i64 noundef %48) #22
  %50 = getelementptr inbounds nuw i8, ptr %0, i64 72
  store ptr %49, ptr %50, align 8
  %51 = load i32, ptr %46, align 8
  %52 = getelementptr inbounds nuw i8, ptr %0, i64 80
  store i32 %51, ptr %52, align 8
  %53 = getelementptr inbounds nuw i8, ptr %1, i64 88
  %54 = load ptr, ptr %53, align 8
  %55 = getelementptr inbounds nuw i8, ptr %1, i64 96
  %56 = load i32, ptr %55, align 8
  %57 = zext i32 %56 to i64
  %58 = tail call ptr @g_memdup2(ptr noundef %54, i64 noundef %57) #22
  %59 = getelementptr inbounds nuw i8, ptr %0, i64 88
  store ptr %58, ptr %59, align 8
  %60 = load i32, ptr %55, align 8
  %61 = getelementptr inbounds nuw i8, ptr %0, i64 96
  store i32 %60, ptr %61, align 8
  %62 = getelementptr inbounds nuw i8, ptr %1, i64 104
  %63 = load ptr, ptr %62, align 8
  %64 = tail call dereferenceable_or_null(32) ptr @g_memdup2(ptr noundef %63, i64 noundef 32) #22
  %65 = getelementptr inbounds nuw i8, ptr %0, i64 104
  store ptr %64, ptr %65, align 8
  %66 = getelementptr inbounds nuw i8, ptr %1, i64 112
  %67 = load ptr, ptr %66, align 8
  %68 = tail call dereferenceable_or_null(24) ptr @g_memdup2(ptr noundef %67, i64 noundef 24) #22
  %69 = getelementptr inbounds nuw i8, ptr %0, i64 112
  store ptr %68, ptr %69, align 8
  ret ptr %0
}